target datalayout = "e-m:e-p270:32:32-p271:32:32-p272:64:64-i64:64-i128:128-f80:128-n8:16:32:64-S128"
target triple = "x86_64-pc-linux-gnu"

%"class.llvm::StringRef" = type { ptr, i64 }
%"class.clang::format::AnnotatedLine" = type { ptr, ptr, %"class.llvm::SmallVector", i32, i32, i32, i64, i64, i8, i8, i8, i8, i8, i8, i8, i8, i8, i8, i8, i8, i32 }
%"class.llvm::SmallVector" = type { %"class.llvm::SmallVectorImpl" }
%"class.llvm::SmallVectorImpl" = type { %"class.llvm::SmallVectorTemplateBase" }
%"class.llvm::SmallVectorTemplateBase" = type { %"class.llvm::SmallVectorTemplateCommon" }
%"class.llvm::SmallVectorTemplateCommon" = type { %"class.llvm::SmallVectorBase" }
%"class.llvm::SmallVectorBase" = type { ptr, i32, i32 }
%"struct.clang::format::FormatToken" = type <{ %"class.clang::Token", %"class.llvm::StringRef", %"class.std::shared_ptr", %"class.clang::SourceRange", i8, i16, i8, i32, i32, i32, i32, i32, i32, i32, i32, i32, i16, [2 x i8], i32, i32, i32, i32, i32, i32, i32, i32, i32, i32, [4 x i8], %"class.llvm::SmallVector.0", i32, i32, ptr, ptr, ptr, ptr, i8, i8, i8, i8, i8, i8, [2 x i8], %"class.llvm::SmallVector.5", %"class.std::optional", i8, [7 x i8] }>
%"class.clang::Token" = type <{ i32, i32, ptr, i16, i16, [4 x i8] }>
%"class.std::shared_ptr" = type { %"class.std::__shared_ptr" }
%"class.std::__shared_ptr" = type { ptr, %"class.std::__shared_count" }
%"class.std::__shared_count" = type { ptr }
%"class.clang::SourceRange" = type { %"class.clang::SourceLocation", %"class.clang::SourceLocation" }
%"class.clang::SourceLocation" = type { i32 }
%"class.llvm::SmallVector.0" = type { %"class.llvm::SmallVectorImpl.1", %"struct.llvm::SmallVectorStorage.4" }
%"class.llvm::SmallVectorImpl.1" = type { %"class.llvm::SmallVectorTemplateBase.2" }
%"class.llvm::SmallVectorTemplateBase.2" = type { %"class.llvm::SmallVectorTemplateCommon.3" }
%"class.llvm::SmallVectorTemplateCommon.3" = type { %"class.llvm::SmallVectorBase" }
%"struct.llvm::SmallVectorStorage.4" = type { [16 x i8] }
%"class.llvm::SmallVector.5" = type { %"class.llvm::SmallVectorImpl", %"struct.llvm::SmallVectorStorage.6" }
%"struct.llvm::SmallVectorStorage.6" = type { [8 x i8] }
%"class.std::optional" = type { %"struct.std::_Optional_base" }
%"struct.std::_Optional_base" = type { %"struct.std::_Optional_payload" }
%"struct.std::_Optional_payload" = type { %"struct.std::_Optional_payload.base", [7 x i8] }
%"struct.std::_Optional_payload.base" = type { %"struct.std::_Optional_payload_base.base" }
%"struct.std::_Optional_payload_base.base" = type <{ %"union.std::_Optional_payload_base<clang::format::MacroExpansion>::_Storage", i8 }>
%"union.std::_Optional_payload_base<clang::format::MacroExpansion>::_Storage" = type { %"struct.clang::format::MacroExpansion" }
%"struct.clang::format::MacroExpansion" = type { i32, %"class.llvm::SmallVector.8", i32, i32 }
%"class.llvm::SmallVector.8" = type { %"class.llvm::SmallVectorImpl.9", %"struct.llvm::SmallVectorStorage.12" }
%"class.llvm::SmallVectorImpl.9" = type { %"class.llvm::SmallVectorTemplateBase.10" }
%"class.llvm::SmallVectorTemplateBase.10" = type { %"class.llvm::SmallVectorTemplateCommon.11" }
%"class.llvm::SmallVectorTemplateCommon.11" = type { %"class.llvm::SmallVectorBase" }
%"struct.llvm::SmallVectorStorage.12" = type { [8 x i8] }
%"class.clang::format::TokenAnnotator" = type { ptr, i8, [7 x i8], %"class.clang::LangOptions", ptr, %"class.llvm::SmallVector.33", %"class.llvm::SmallVector.33" }
%"class.clang::LangOptions" = type <{ %"class.clang::LangOptionsBase.base", [2 x i8], i32, %"struct.clang::SanitizerSet", i8, [7 x i8], %"class.std::vector", %"class.std::vector", %"class.std::vector", %"class.std::vector", %"class.std::vector", %"class.clang::ObjCRuntime", i32, %"class.std::__cxx11::basic_string", %"class.std::__cxx11::basic_string", %"class.std::__cxx11::basic_string", %"class.std::__cxx11::basic_string", %"class.std::vector", %"struct.clang::CommentOptions", %"class.std::vector", %"class.std::map", %"class.std::vector.20", %"class.std::__cxx11::basic_string", %"class.std::__cxx11::basic_string", %"class.std::optional.25", i8, [3 x i8], i32, i32, [4 x i8], %"class.std::vector", %"class.std::__cxx11::basic_string", i8, i8, [6 x i8], %"class.std::__cxx11::basic_string", i8, [7 x i8] }>
%"class.clang::LangOptionsBase.base" = type <{ i64, i64, i64, i64, i64, i64, i64, i64, i64, i64, i64, i64, i64, i64, i64, i64, i64, i64, i64, i64, i64, i64, i64, i64, i64, i16 }>
%"struct.clang::SanitizerSet" = type { %"class.clang::SanitizerMask" }
%"class.clang::SanitizerMask" = type { [2 x i64] }
%"class.clang::ObjCRuntime" = type <{ i32, %"class.llvm::VersionTuple" }>
%"class.llvm::VersionTuple" = type { i64, i64 }
%"struct.clang::CommentOptions" = type <{ %"class.std::vector", i8, [7 x i8] }>
%"class.std::map" = type { %"class.std::_Rb_tree" }
%"class.std::_Rb_tree" = type { %"struct.std::_Rb_tree<std::__cxx11::basic_string<char>, std::pair<const std::__cxx11::basic_string<char>, std::__cxx11::basic_string<char>>, std::_Select1st<std::pair<const std::__cxx11::basic_string<char>, std::__cxx11::basic_string<char>>>, std::greater<std::__cxx11::basic_string<char>>>::_Rb_tree_impl" }
%"struct.std::_Rb_tree<std::__cxx11::basic_string<char>, std::pair<const std::__cxx11::basic_string<char>, std::__cxx11::basic_string<char>>, std::_Select1st<std::pair<const std::__cxx11::basic_string<char>, std::__cxx11::basic_string<char>>>, std::greater<std::__cxx11::basic_string<char>>>::_Rb_tree_impl" = type { [8 x i8], %"struct.std::_Rb_tree_header" }
%"struct.std::_Rb_tree_header" = type { %"struct.std::_Rb_tree_node_base", i64 }
%"struct.std::_Rb_tree_node_base" = type { i32, ptr, ptr, ptr }
%"class.std::vector.20" = type { %"struct.std::_Vector_base.21" }
%"struct.std::_Vector_base.21" = type { %"struct.std::_Vector_base<llvm::Triple, std::allocator<llvm::Triple>>::_Vector_impl" }
%"struct.std::_Vector_base<llvm::Triple, std::allocator<llvm::Triple>>::_Vector_impl" = type { %"struct.std::_Vector_base<llvm::Triple, std::allocator<llvm::Triple>>::_Vector_impl_data" }
%"struct.std::_Vector_base<llvm::Triple, std::allocator<llvm::Triple>>::_Vector_impl_data" = type { ptr, ptr, ptr }
%"class.std::optional.25" = type { %"struct.std::_Optional_base.26" }
%"struct.std::_Optional_base.26" = type { %"struct.std::_Optional_payload.28" }
%"struct.std::_Optional_payload.28" = type { %"struct.std::_Optional_payload_base.base.30", [3 x i8] }
%"struct.std::_Optional_payload_base.base.30" = type <{ %"union.std::_Optional_payload_base<clang::TargetCXXABI::Kind>::_Storage", i8 }>
%"union.std::_Optional_payload_base<clang::TargetCXXABI::Kind>::_Storage" = type { i32 }
%"class.std::vector" = type { %"struct.std::_Vector_base" }
%"struct.std::_Vector_base" = type { %"struct.std::_Vector_base<std::__cxx11::basic_string<char>, std::allocator<std::__cxx11::basic_string<char>>>::_Vector_impl" }
%"struct.std::_Vector_base<std::__cxx11::basic_string<char>, std::allocator<std::__cxx11::basic_string<char>>>::_Vector_impl" = type { %"struct.std::_Vector_base<std::__cxx11::basic_string<char>, std::allocator<std::__cxx11::basic_string<char>>>::_Vector_impl_data" }
%"struct.std::_Vector_base<std::__cxx11::basic_string<char>, std::allocator<std::__cxx11::basic_string<char>>>::_Vector_impl_data" = type { ptr, ptr, ptr }
%"class.std::__cxx11::basic_string" = type { %"struct.std::__cxx11::basic_string<char>::_Alloc_hider", i64, %union.anon }
%"struct.std::__cxx11::basic_string<char>::_Alloc_hider" = type { ptr }
%union.anon = type { i64, [8 x i8] }
%"class.llvm::SmallVector.33" = type { %"class.llvm::SmallVectorImpl.34", %"struct.llvm::SmallVectorStorage.37" }
%"class.llvm::SmallVectorImpl.34" = type { %"class.llvm::SmallVectorTemplateBase.35" }
%"class.llvm::SmallVectorTemplateBase.35" = type { %"class.llvm::SmallVectorTemplateCommon.36" }
%"class.llvm::SmallVectorTemplateCommon.36" = type { %"class.llvm::SmallVectorBase" }
%"struct.llvm::SmallVectorStorage.37" = type { [48 x i8] }
%"struct.clang::format::FormatStyle" = type { i8, i32, i8, i8, %"struct.clang::format::FormatStyle::AlignConsecutiveStyle", %"struct.clang::format::FormatStyle::AlignConsecutiveStyle", %"struct.clang::format::FormatStyle::AlignConsecutiveStyle", %"struct.clang::format::FormatStyle::AlignConsecutiveStyle", %"struct.clang::format::FormatStyle::ShortCaseStatementsAlignmentStyle", %"struct.clang::format::FormatStyle::AlignConsecutiveStyle", %"struct.clang::format::FormatStyle::AlignConsecutiveStyle", %"struct.clang::format::FormatStyle::AlignConsecutiveStyle", i8, i8, %"struct.clang::format::FormatStyle::TrailingCommentsAlignmentStyle", i8, i8, i8, i8, i8, i8, i8, i8, i8, i8, i8, i8, i8, i8, %"class.std::vector", i8, i8, i8, i8, %"class.std::optional.38", %"struct.clang::format::FormatStyle::BraceWrappingFlags", i8, i8, i8, i8, i8, i8, i8, i8, i8, i8, i8, i8, i8, i8, i32, %"class.std::__cxx11::basic_string", i8, i8, i8, i32, i32, i8, i8, i8, i8, i8, i8, i8, %"class.std::vector", %"struct.clang::tooling::IncludeStyle", %"class.std::vector", i8, i8, i8, i8, i8, i8, i8, i32, i8, i8, i8, i8, %"struct.clang::format::FormatStyle::IntegerLiteralSeparatorStyle", %"class.std::vector", i8, i8, %"struct.clang::format::FormatStyle::KeepEmptyLinesStyle", i8, i8, i8, %"class.std::__cxx11::basic_string", %"class.std::__cxx11::basic_string", %"class.std::vector", i32, i8, %"class.std::vector", i8, i32, i8, %"class.std::vector", i8, i8, i8, i32, i32, i32, i32, i32, i32, i32, i32, i32, i32, i32, i8, i32, i8, %"class.std::vector", %"class.std::vector.51", i8, i8, i8, i8, i8, i8, i8, i8, i32, i8, i8, i8, i8, i8, i8, i8, i8, i8, i8, i8, i8, i8, i8, i8, %"struct.clang::format::FormatStyle::SpaceBeforeParensCustom", i8, i8, i8, i32, i8, i8, %"struct.clang::format::FormatStyle::SpacesInLineComment", i8, %"struct.clang::format::FormatStyle::SpacesInParensCustom", i8, i8, %"class.std::vector", %"class.std::vector", %"class.std::vector", i8, i32, %"class.std::vector", %"class.std::vector", i8, i8, %"class.std::vector", %"struct.clang::format::FormatStyle::FormatStyleSet" }
%"struct.clang::format::FormatStyle::ShortCaseStatementsAlignmentStyle" = type { i8, i8, i8, i8, i8 }
%"struct.clang::format::FormatStyle::AlignConsecutiveStyle" = type { i8, i8, i8, i8, i8, i8 }
%"struct.clang::format::FormatStyle::TrailingCommentsAlignmentStyle" = type { i8, i32 }
%"class.std::optional.38" = type { %"struct.std::_Optional_base.39" }
%"struct.std::_Optional_base.39" = type { %"struct.std::_Optional_payload.41" }
%"struct.std::_Optional_payload.41" = type { %"struct.std::_Optional_payload_base.base.43", [3 x i8] }
%"struct.std::_Optional_payload_base.base.43" = type <{ %"union.std::_Optional_payload_base<unsigned int>::_Storage", i8 }>
%"union.std::_Optional_payload_base<unsigned int>::_Storage" = type { i32 }
%"struct.clang::format::FormatStyle::BraceWrappingFlags" = type { i8, i8, i8, i8, i8, i8, i8, i8, i8, i8, i8, i8, i8, i8, i8, i8, i8, i8 }
%"struct.clang::tooling::IncludeStyle" = type <{ i32, [4 x i8], %"class.std::vector.46", %"class.std::__cxx11::basic_string", %"class.std::__cxx11::basic_string", i8, [7 x i8] }>
%"class.std::vector.46" = type { %"struct.std::_Vector_base.47" }
%"struct.std::_Vector_base.47" = type { %"struct.std::_Vector_base<clang::tooling::IncludeStyle::IncludeCategory, std::allocator<clang::tooling::IncludeStyle::IncludeCategory>>::_Vector_impl" }
%"struct.std::_Vector_base<clang::tooling::IncludeStyle::IncludeCategory, std::allocator<clang::tooling::IncludeStyle::IncludeCategory>>::_Vector_impl" = type { %"struct.std::_Vector_base<clang::tooling::IncludeStyle::IncludeCategory, std::allocator<clang::tooling::IncludeStyle::IncludeCategory>>::_Vector_impl_data" }
%"struct.std::_Vector_base<clang::tooling::IncludeStyle::IncludeCategory, std::allocator<clang::tooling::IncludeStyle::IncludeCategory>>::_Vector_impl_data" = type { ptr, ptr, ptr }
%"struct.clang::format::FormatStyle::IntegerLiteralSeparatorStyle" = type { i8, i8, i8, i8, i8, i8 }
%"struct.clang::format::FormatStyle::KeepEmptyLinesStyle" = type { i8, i8, i8 }
%"class.std::vector.51" = type { %"struct.std::_Vector_base.52" }
%"struct.std::_Vector_base.52" = type { %"struct.std::_Vector_base<clang::format::FormatStyle::RawStringFormat, std::allocator<clang::format::FormatStyle::RawStringFormat>>::_Vector_impl" }
%"struct.std::_Vector_base<clang::format::FormatStyle::RawStringFormat, std::allocator<clang::format::FormatStyle::RawStringFormat>>::_Vector_impl" = type { %"struct.std::_Vector_base<clang::format::FormatStyle::RawStringFormat, std::allocator<clang::format::FormatStyle::RawStringFormat>>::_Vector_impl_data" }
%"struct.std::_Vector_base<clang::format::FormatStyle::RawStringFormat, std::allocator<clang::format::FormatStyle::RawStringFormat>>::_Vector_impl_data" = type { ptr, ptr, ptr }
%"struct.clang::format::FormatStyle::SpaceBeforeParensCustom" = type { i8, i8, i8, i8, i8, i8, i8, i8, i8, i8 }
%"struct.clang::format::FormatStyle::SpacesInLineComment" = type { i32, i32 }
%"struct.clang::format::FormatStyle::SpacesInParensCustom" = type { i8, i8, i8, i8, i8 }
%"struct.clang::format::FormatStyle::FormatStyleSet" = type { %"class.std::shared_ptr.56" }
%"class.std::shared_ptr.56" = type { %"class.std::__shared_ptr.57" }
%"class.std::__shared_ptr.57" = type { ptr, %"class.std::__shared_count" }

; Function Attrs: mustprogress nounwind uwtable
define linkonce_odr hidden noundef zeroext i1 @_ZNK5clang5Token2isENS_3tok9TokenKindE(ptr noundef nonnull align 8 dereferenceable(20) %0, i16 noundef zeroext %1) #0 comdat align 2 {
  %3 = alloca ptr, align 8
  %4 = alloca i16, align 2
  store ptr %0, ptr %3, align 8
  store i16 %1, ptr %4, align 2
  %5 = load ptr, ptr %3, align 8
  %6 = getelementptr inbounds nuw %"class.clang::Token", ptr %5, i32 0, i32 3
  %7 = load i16, ptr %6, align 8
  %8 = zext i16 %7 to i32
  %9 = load i16, ptr %4, align 2
  %10 = zext i16 %9 to i32
  %11 = icmp eq i32 %8, %10
  ret i1 %11
}

; Function Attrs: mustprogress nounwind uwtable
define linkonce_odr hidden noundef zeroext i1 @_ZNK5clang6format11FormatToken2isENS_3tok9TokenKindE(ptr noundef nonnull align 8 dereferenceable(305) %0, i16 noundef zeroext %1) #0 comdat align 2 {
  %3 = alloca ptr, align 8
  %4 = alloca i16, align 2
  store ptr %0, ptr %3, align 8
  store i16 %1, ptr %4, align 2
  %5 = load ptr, ptr %3, align 8
  %6 = getelementptr inbounds nuw %"struct.clang::format::FormatToken", ptr %5, i32 0, i32 0
  %7 = load i16, ptr %4, align 2
  %8 = call noundef zeroext i1 @_ZNK5clang5Token2isENS_3tok9TokenKindE(ptr noundef nonnull align 8 dereferenceable(20) %6, i16 noundef zeroext %7)
  ret i1 %8
}

; Function Attrs: mustprogress nounwind uwtable
define linkonce_odr hidden noundef zeroext i1 @_ZNK5clang6format11FormatToken20endsSequenceInternalINS_3tok9TokenKindEJEEEbT_(ptr noundef nonnull align 8 dereferenceable(305) %0, i16 noundef zeroext %1) #0 comdat align 2 {
  %3 = alloca i1, align 1
  %4 = alloca ptr, align 8
  %5 = alloca i16, align 2
  store ptr %0, ptr %4, align 8
  store i16 %1, ptr %5, align 2
  %6 = load ptr, ptr %4, align 8
  %7 = call noundef zeroext i1 @_ZNK5clang6format11FormatToken2isENS_3tok9TokenKindE(ptr noundef nonnull align 8 dereferenceable(305) %6, i16 noundef zeroext 4)
  br i1 %7, label %8, label %17

8:                                                ; preds = %2
  %9 = getelementptr inbounds nuw %"struct.clang::format::FormatToken", ptr %6, i32 0, i32 34
  %10 = load ptr, ptr %9, align 8
  %11 = icmp ne ptr %10, null
  br i1 %11, label %12, label %17

12:                                               ; preds = %8
  %13 = getelementptr inbounds nuw %"struct.clang::format::FormatToken", ptr %6, i32 0, i32 34
  %14 = load ptr, ptr %13, align 8
  %15 = load i16, ptr %5, align 2
  %16 = call noundef zeroext i1 @_ZNK5clang6format11FormatToken20endsSequenceInternalINS_3tok9TokenKindEJEEEbT_(ptr noundef nonnull align 8 dereferenceable(305) %14, i16 noundef zeroext %15)
  store i1 %16, ptr %3, align 1
  br label %20

17:                                               ; preds = %8, %2
  %18 = load i16, ptr %5, align 2
  %19 = call noundef zeroext i1 @_ZNK5clang6format11FormatToken2isENS_3tok9TokenKindE(ptr noundef nonnull align 8 dereferenceable(305) %6, i16 noundef zeroext %18)
  store i1 %19, ptr %3, align 1
  br label %20

20:                                               ; preds = %17, %12
  %21 = load i1, ptr %3, align 1
  ret i1 %21
}

; Function Attrs: mustprogress nounwind uwtable
define linkonce_odr hidden noundef zeroext i1 @_ZNK5clang6format11FormatToken12endsSequenceINS_3tok9TokenKindEJEEEbT_DpT0_(ptr noundef nonnull align 8 dereferenceable(305) %0, i16 noundef zeroext %1) #0 comdat align 2 {
  %3 = alloca ptr, align 8
  %4 = alloca i16, align 2
  store ptr %0, ptr %3, align 8
  store i16 %1, ptr %4, align 2
  %5 = load ptr, ptr %3, align 8
  %6 = load i16, ptr %4, align 2
  %7 = call noundef zeroext i1 @_ZNK5clang6format11FormatToken20endsSequenceInternalINS_3tok9TokenKindEJEEEbT_(ptr noundef nonnull align 8 dereferenceable(305) %5, i16 noundef zeroext %6)
  ret i1 %7
}

; Function Attrs: mustprogress nounwind uwtable
define linkonce_odr hidden noundef zeroext i1 @_ZNK5clang6format13AnnotatedLine8endsWithIJNS_3tok9TokenKindEEEEbDpT_(ptr noundef nonnull align 8 dereferenceable(80) %0, i16 noundef zeroext %1) #0 comdat align 2 {
  %3 = alloca ptr, align 8
  %4 = alloca i16, align 2
  store ptr %0, ptr %3, align 8
  store i16 %1, ptr %4, align 2
  %5 = load ptr, ptr %3, align 8
  %6 = getelementptr inbounds nuw %"class.clang::format::AnnotatedLine", ptr %5, i32 0, i32 1
  %7 = load ptr, ptr %6, align 8
  %8 = icmp ne ptr %7, null
  br i1 %8, label %9, label %14

9:                                                ; preds = %2
  %10 = getelementptr inbounds nuw %"class.clang::format::AnnotatedLine", ptr %5, i32 0, i32 1
  %11 = load ptr, ptr %10, align 8
  %12 = load i16, ptr %4, align 2
  %13 = call noundef zeroext i1 @_ZNK5clang6format11FormatToken12endsSequenceINS_3tok9TokenKindEJEEEbT_DpT0_(ptr noundef nonnull align 8 dereferenceable(305) %11, i16 noundef zeroext %12)
  br label %14

14:                                               ; preds = %9, %2
  %15 = phi i1 [ false, %2 ], [ %13, %9 ]
  ret i1 %15
}

; Function Attrs: mustprogress nounwind uwtable
define linkonce_odr hidden noundef zeroext i1 @_ZNK5clang6format13AnnotatedLine25mightBeFunctionDefinitionEv(ptr noundef nonnull align 8 dereferenceable(80) %0) #0 comdat align 2 {
  %2 = alloca ptr, align 8
  store ptr %0, ptr %2, align 8
  %3 = load ptr, ptr %2, align 8
  %4 = call noundef zeroext i1 @_ZNK5clang6format13AnnotatedLine8endsWithIJNS_3tok9TokenKindEEEEbDpT_(ptr noundef nonnull align 8 dereferenceable(80) %3, i16 noundef zeroext 63)
  %5 = xor i1 %4, true
  ret i1 %5
}

; Function Attrs: mustprogress nounwind uwtable
define dso_local noundef zeroext i1 @_ZNK5clang6format14TokenAnnotator22mustBreakForReturnTypeERKNS0_13AnnotatedLineE(ptr noundef nonnull align 8 dereferenceable(1000) %0, ptr noundef nonnull align 8 dereferenceable(80) %1) #0 align 2 {
  %3 = alloca i1, align 1
  %4 = alloca ptr, align 8
  %5 = alloca ptr, align 8
  store ptr %0, ptr %4, align 8
  store ptr %1, ptr %5, align 8
  %6 = load ptr, ptr %4, align 8
  %7 = getelementptr inbounds nuw %"class.clang::format::TokenAnnotator", ptr %6, i32 0, i32 0
  %8 = load ptr, ptr %7, align 8
  %9 = getelementptr inbounds nuw %"struct.clang::format::FormatStyle", ptr %8, i32 0, i32 38
  %10 = load i8, ptr %9, align 8
  %11 = sext i8 %10 to i32
  %12 = icmp eq i32 %11, 4
  br i1 %12, label %20, label %13

13:                                               ; preds = %2
  %14 = getelementptr inbounds nuw %"class.clang::format::TokenAnnotator", ptr %6, i32 0, i32 0
  %15 = load ptr, ptr %14, align 8
  %16 = getelementptr inbounds nuw %"struct.clang::format::FormatStyle", ptr %15, i32 0, i32 38
  %17 = load i8, ptr %16, align 8
  %18 = sext i8 %17 to i32
  %19 = icmp eq i32 %18, 6
  br i1 %19, label %20, label %26

20:                                               ; preds = %13, %2
  %21 = load ptr, ptr %5, align 8
  %22 = getelementptr inbounds nuw %"class.clang::format::AnnotatedLine", ptr %21, i32 0, i32 4
  %23 = load i32, ptr %22, align 4
  %24 = icmp ugt i32 %23, 0
  br i1 %24, label %25, label %26

25:                                               ; preds = %20
  store i1 false, ptr %3, align 1
  br label %38

26:                                               ; preds = %20, %13
  %27 = getelementptr inbounds nuw %"class.clang::format::TokenAnnotator", ptr %6, i32 0, i32 0
  %28 = load ptr, ptr %27, align 8
  %29 = getelementptr inbounds nuw %"struct.clang::format::FormatStyle", ptr %28, i32 0, i32 38
  %30 = load i8, ptr %29, align 8
  %31 = sext i8 %30 to i32
  switch i32 %31, label %37 [
    i32 0, label %32
    i32 1, label %32
    i32 2, label %32
    i32 3, label %33
    i32 4, label %33
    i32 5, label %34
    i32 6, label %34
  ]

32:                                               ; preds = %26, %26, %26
  store i1 false, ptr %3, align 1
  br label %38

33:                                               ; preds = %26, %26
  store i1 true, ptr %3, align 1
  br label %38

34:                                               ; preds = %26, %26
  %35 = load ptr, ptr %5, align 8
  %36 = call noundef zeroext i1 @_ZNK5clang6format13AnnotatedLine25mightBeFunctionDefinitionEv(ptr noundef nonnull align 8 dereferenceable(80) %35)
  store i1 %36, ptr %3, align 1
  br label %38

37:                                               ; preds = %26
  store i1 false, ptr %3, align 1
  br label %38

38:                                               ; preds = %37, %34, %33, %32, %25
  %39 = load i1, ptr %3, align 1
  ret i1 %39
}