; Function Attrs: mustprogress nofree norecurse nosync nounwind willreturn memory(read, inaccessiblemem: none) uwtable
define dso_local noundef zeroext i1 @_ZNK5clang6format14TokenAnnotator22mustBreakForReturnTypeERKNS0_13AnnotatedLineE(ptr noundef nonnull readonly align 8 captures(none) dereferenceable(1000) %0, ptr noundef nonnull readonly align 8 captures(none) dereferenceable(80) %1) local_unnamed_addr #3 align 2 {
  %3 = load ptr, ptr %0, align 8
  %4 = getelementptr inbounds nuw i8, ptr %3, i64 144
  %5 = load i8, ptr %4, align 8
  switch i8 %5, label %21 [
    i8 4, label %6
    i8 6, label %6
    i8 5, label %13
    i8 3, label %_ZNK5clang6format13AnnotatedLine25mightBeFunctionDefinitionEv.exit
  ]

6:                                                ; preds = %2, %2
  %7 = getelementptr inbounds nuw i8, ptr %1, i64 36
  %8 = load i32, ptr %7, align 4
  %.not = icmp eq i32 %8, 0
  br i1 %.not, label %9, label %_ZNK5clang6format13AnnotatedLine25mightBeFunctionDefinitionEv.exit

9:                                                ; preds = %6
  %10 = add i8 %5, -7
  %switch = icmp ult i8 %10, -2
  %11 = getelementptr inbounds nuw i8, ptr %1, i64 8
  %12 = load ptr, ptr %11, align 8
  %.not.i.i = icmp eq ptr %12, null
  %or.cond = select i1 %switch, i1 true, i1 %.not.i.i
  br i1 %or.cond, label %_ZNK5clang6format13AnnotatedLine25mightBeFunctionDefinitionEv.exit, label %tailrecurse.i.i.i.i.preheader

13:                                               ; preds = %2
  %.old = getelementptr inbounds nuw i8, ptr %1, i64 8
  %.old5 = load ptr, ptr %.old, align 8
  %.not.i.i.old = icmp eq ptr %.old5, null
  br i1 %.not.i.i.old, label %_ZNK5clang6format13AnnotatedLine25mightBeFunctionDefinitionEv.exit, label %tailrecurse.i.i.i.i.preheader

tailrecurse.i.i.i.i.preheader:                    ; preds = %13, %9
  %.tr.i.i.i.i.ph = phi ptr [ %.old5, %13 ], [ %12, %9 ]
  br label %tailrecurse.i.i.i.i

tailrecurse.i.i.i.i:                              ; preds = %tailrecurse.i.i.i.i.preheader, %17
  %.tr.i.i.i.i = phi ptr [ %19, %17 ], [ %.tr.i.i.i.i.ph, %tailrecurse.i.i.i.i.preheader ]
  %14 = getelementptr inbounds nuw i8, ptr %.tr.i.i.i.i, i64 16
  %15 = load i16, ptr %14, align 8
  %16 = icmp eq i16 %15, 4
  br i1 %16, label %17, label %_ZNK5clang6format11FormatToken12endsSequenceINS_3tok9TokenKindEJEEEbT_DpT0_.exit.i.i

17:                                               ; preds = %tailrecurse.i.i.i.i
  %18 = getelementptr inbounds nuw i8, ptr %.tr.i.i.i.i, i64 208
  %19 = load ptr, ptr %18, align 8
  %.not.i.i.i.i = icmp eq ptr %19, null
  br i1 %.not.i.i.i.i, label %_ZNK5clang6format11FormatToken12endsSequenceINS_3tok9TokenKindEJEEEbT_DpT0_.exit.i.i, label %tailrecurse.i.i.i.i

_ZNK5clang6format11FormatToken12endsSequenceINS_3tok9TokenKindEJEEEbT_DpT0_.exit.i.i: ; preds = %17, %tailrecurse.i.i.i.i
  %20 = icmp ne i16 %15, 63
  br label %_ZNK5clang6format13AnnotatedLine25mightBeFunctionDefinitionEv.exit

21:                                               ; preds = %2
  br label %_ZNK5clang6format13AnnotatedLine25mightBeFunctionDefinitionEv.exit

_ZNK5clang6format13AnnotatedLine25mightBeFunctionDefinitionEv.exit: ; preds = %9, %2, %_ZNK5clang6format11FormatToken12endsSequenceINS_3tok9TokenKindEJEEEbT_DpT0_.exit.i.i, %13, %6, %21
  %.0 = phi i1 [ false, %21 ], [ false, %6 ], [ true, %9 ], [ true, %13 ], [ %20, %_ZNK5clang6format11FormatToken12endsSequenceINS_3tok9TokenKindEJEEEbT_DpT0_.exit.i.i ], [ true, %2 ]
  ret i1 %.0
}